Certificate:
    Data:
        Version: 1 (0x0)
        Serial Number: 237 (0xed)
    Signature Algorithm: md5WithRSAEncryption
        Issuer: CN=Thrift Test CA
        Validity
            Not Before: Mar  9 22:11:14 2014 GMT
            Not After : Mar  9 22:11:14 2015 GMT
        Subject: CN=test.thrift.org
        Subject Public Key Info:
            Public Key Algorithm: rsaEncryption
                Public-Key: (2048 bit)
                Modulus:
                    00:f5:0b:93:b8:4f:dd:a2:33:6f:7b:ac:19:f6:99:
                    59:89:75:bb:cc:db:1c:36:47:f7:19:e3:0e:4a:7c:
                    fd:06:bd:be:ed:83:9e:4f:24:4f:87:2e:79:65:f7:
                    d1:da:f8:9e:3f:3b:c9:f8:6e:c2:53:2c:5d:3c:df:
                    c9:f0:14:44:83:7e:ee:d3:e0:73:38:63:b6:87:9f:
                    4a:b3:36:3d:7e:db:0f:3c:e1:eb:11:64:a0:5c:1f:
                    09:33:ee:37:6f:06:f1:ac:8e:4c:41:36:03:de:cb:
                    a9:7c:fe:18:d8:6c:1c:da:66:56:bf:2b:85:32:ca:
                    41:d0:41:33:c7:4f:c0:7d:d6:63:11:be:ec:05:8a:
                    df:57:5e:bc:1d:b5:00:32:3b:e1:0a:b2:15:50:6a:
                    c1:ba:0c:85:e0:dc:62:b0:29:20:a0:47:5e:57:d0:
                    d5:f7:19:a9:23:16:27:38:69:ce:93:f6:d8:7b:aa:
                    dc:6d:1a:67:73:3c:70:69:b2:9c:5f:22:3e:97:1c:
                    ee:23:c9:63:c1:78:52:94:b6:fd:c9:0d:0c:f0:76:
                    12:3f:8f:b8:87:50:7a:0e:94:94:2a:60:16:45:cb:
                    1f:be:1f:cb:ad:b3:69:c3:ae:72:fb:3c:6c:e8:78:
                    f7:19:bf:ff:9f:05:53:4f:c9:46:f6:39:d1:cc:1f:
                    4a:83
                Exponent: 65537 (0x10001)
    Signature Algorithm: md5WithRSAEncryption
         30:23:50:8f:0a:4e:0c:f9:81:62:e2:f7:7c:4e:c7:6a:a0:ed:
         78:3d:26:5b:a9:ef:57:bf:1c:02:00:c9:0d:ea:68:91:ee:2c:
         b4:1e:6d:50:41:da:2f:f8:e5:3e:54:08:6c:47:b6:a7:29:a3:
         09:71:26:9f:d8:6d:02:db:9e:d3:13:c5:1f:2f:54:86:fa:7a:
         93:30:45:be:85:80:38:61:c8:d3:43:4f:44:70:03:33:a5:d1:
         37:6c:ee:41:60:8a:67:a6:61:12:8c:d4:df:36:27:66:b6:5c:
         c3:bd:ac:f4:8f:18:dd:3e:e5:3e:09:a5:b1:11:aa:4a:52:e4:
         eb:8d:1d:25:d9:c4:ef:d0:74:d5:d5:4c:1d:31:4f:d5:d8:d5:
         f1:94:9f:30:89:c6:88:6c:3e:ca:d5:7d:9e:36:d9:d0:f0:42:
         b9:d5:61:bc:42:9f:16:42:85:51:00:74:26:01:13:bb:40:d5:
         d8:64:39:ba:9b:76:4e:8b:9a:c4:b5:e6:02:a8:2b:bb:e1:9d:
         21:c6:e7:8a:eb:33:99:bf:2c:a2:ce:2a:83:8a:df:c8:e6:40:
         01:f7:b7:63:86:09:ac:4d:58:20:e9:a9:d3:c5:e7:27:5e:2a:
         24:88:31:b7:aa:12:ce:8e:d5:c0:c5:c5:99:67:12:a6:7f:c6:
         1a:7e:18:93
-----BEGIN CERTIFICATE-----
MIICqDCCAZACAgDtMA0GCSqGSIb3DQEBBAUAMBkxFzAVBgNVBAMTDlRocmlmdCBU
ZXN0IENBMB4XDTE0MDMwOTIyMTExNFoXDTE1MDMwOTIyMTExNFowGjEYMBYGA1UE
AxMPdGVzdC50aHJpZnQub3JnMIIBIjANBgkqhkiG9w0BAQEFAAOCAQ8AMIIBCgKC
AQEA9QuTuE/dojNve6wZ9plZiXW7zNscNkf3GeMOSnz9Br2+7YOeTyRPhy55ZffR
2viePzvJ+G7CUyxdPN/J8BREg37u0+BzOGO2h59KszY9ftsPPOHrEWSgXB8JM+43
bwbxrI5MQTYD3supfP4Y2Gwc2mZWvyuFMspB0EEzx0/AfdZjEb7sBYrfV168HbUA
MjvhCrIVUGrBugyF4NxisCkgoEdeV9DV9xmpIxYnOGnOk/bYe6rcbRpnczxwabKc
XyI+lxzuI8ljwXhSlLb9yQ0M8HYSP4+4h1B6DpSUKmAWRcsfvh/LrbNpw65y+zxs
6Hj3Gb//nwVTT8lG9jnRzB9KgwIDAQABMA0GCSqGSIb3DQEBBAUAA4IBAQAwI1CP
Ck4M+YFi4vd8TsdqoO14PSZbqe9XvxwCAMkN6miR7iy0Hm1QQdov+OU+VAhsR7an
KaMJcSaf2G0C257TE8UfL1SG+nqTMEW+hYA4YcjTQ09EcAMzpdE3bO5BYIpnpmES
jNTfNidmtlzDvaz0jxjdPuU+CaWxEapKUuTrjR0l2cTv0HTV1UwdMU/V2NXxlJ8w
icaIbD7K1X2eNtnQ8EK51WG8Qp8WQoVRAHQmARO7QNXYZDm6m3ZOi5rEteYCqCu7
4Z0hxueK6zOZvyyiziqDit/I5kAB97djhgmsTVgg6anTxecnXiokiDG3qhLOjtXA
xcWZZxKmf8YafhiT
-----END CERTIFICATE-----
